target datalayout = "e-m:e-p270:32:32-p271:32:32-p272:64:64-i64:64-i128:128-f80:128-n8:16:32:64-S128"
target triple = "x86_64-pc-linux-gnu"

%struct.SDL_IOStreamInterface = type { i32, ptr, ptr, ptr, ptr, ptr, ptr }
%struct.SDL_IOStream = type { %struct.SDL_IOStreamInterface, ptr, i32, i32 }
%struct.IOStreamMemData = type { ptr, ptr, ptr }

@.str.2 = private unnamed_addr constant [26 x i8] c"Parameter '%s' is invalid\00", align 1
@.str.7 = private unnamed_addr constant [4 x i8] c"mem\00", align 1
@.str.8 = private unnamed_addr constant [5 x i8] c"size\00", align 1
@.str.9 = private unnamed_addr constant [25 x i8] c"SDL.iostream.memory.base\00", align 1
@.str.10 = private unnamed_addr constant [25 x i8] c"SDL.iostream.memory.size\00", align 1
@.str.11 = private unnamed_addr constant [8 x i8] c"context\00", align 1
@.str.12 = private unnamed_addr constant [6 x i8] c"iface\00", align 1
@.str.13 = private unnamed_addr constant [67 x i8] c"Invalid interface, should be initialized with SDL_INIT_INTERFACE()\00", align 1

; Function Attrs: nounwind uwtable
define hidden i32 @SDL_GetIOProperties_REAL(ptr noundef %0) #0 {
  %2 = alloca i32, align 4
  %3 = alloca ptr, align 8
  store ptr %0, ptr %3, align 8
  %4 = load ptr, ptr %3, align 8
  %5 = icmp ne ptr %4, null
  br i1 %5, label %8, label %6

6:                                                ; preds = %1
  %7 = call zeroext i1 (ptr, ...) @SDL_SetError_REAL(ptr noundef @.str.2, ptr noundef @.str.11)
  store i32 0, ptr %2, align 4
  br label %21

8:                                                ; preds = %1
  %9 = load ptr, ptr %3, align 8
  %10 = getelementptr inbounds nuw %struct.SDL_IOStream, ptr %9, i32 0, i32 3
  %11 = load i32, ptr %10, align 4
  %12 = icmp eq i32 %11, 0
  br i1 %12, label %13, label %17

13:                                               ; preds = %8
  %14 = call i32 @SDL_CreateProperties_REAL()
  %15 = load ptr, ptr %3, align 8
  %16 = getelementptr inbounds nuw %struct.SDL_IOStream, ptr %15, i32 0, i32 3
  store i32 %14, ptr %16, align 4
  br label %17

17:                                               ; preds = %13, %8
  %18 = load ptr, ptr %3, align 8
  %19 = getelementptr inbounds nuw %struct.SDL_IOStream, ptr %18, i32 0, i32 3
  %20 = load i32, ptr %19, align 4
  store i32 %20, ptr %2, align 4
  br label %21

21:                                               ; preds = %17, %6
  %22 = load i32, ptr %2, align 4
  ret i32 %22
}

; Function Attrs: nounwind uwtable
define hidden ptr @SDL_OpenIO_REAL(ptr noundef %0, ptr noundef %1) #0 {
  %3 = alloca ptr, align 8
  %4 = alloca ptr, align 8
  %5 = alloca ptr, align 8
  %6 = alloca ptr, align 8
  store ptr %0, ptr %4, align 8
  store ptr %1, ptr %5, align 8
  %7 = load ptr, ptr %4, align 8
  %8 = icmp ne ptr %7, null
  br i1 %8, label %11, label %9

9:                                                ; preds = %2
  %10 = call zeroext i1 (ptr, ...) @SDL_SetError_REAL(ptr noundef @.str.2, ptr noundef @.str.12)
  store ptr null, ptr %3, align 8
  br label %32

11:                                               ; preds = %2
  %12 = load ptr, ptr %4, align 8
  %13 = getelementptr inbounds nuw %struct.SDL_IOStreamInterface, ptr %12, i32 0, i32 0
  %14 = load i32, ptr %13, align 8
  %15 = zext i32 %14 to i64
  %16 = icmp ult i64 %15, 56
  br i1 %16, label %17, label %19

17:                                               ; preds = %11
  %18 = call zeroext i1 (ptr, ...) @SDL_SetError_REAL(ptr noundef @.str.13)
  store ptr null, ptr %3, align 8
  br label %32

19:                                               ; preds = %11
  call void @llvm.lifetime.start.p0(i64 8, ptr %6) #11
  %20 = call noalias ptr @SDL_calloc_REAL(i64 noundef 1, i64 noundef 72) #12
  store ptr %20, ptr %6, align 8
  %21 = load ptr, ptr %6, align 8
  %22 = icmp ne ptr %21, null
  br i1 %22, label %23, label %30

23:                                               ; preds = %19
  %24 = load ptr, ptr %6, align 8
  %25 = getelementptr inbounds nuw %struct.SDL_IOStream, ptr %24, i32 0, i32 0
  %26 = load ptr, ptr %4, align 8
  call void @llvm.memcpy.p0.p0.i64(ptr align 8 %25, ptr align 8 %26, i64 56, i1 false)
  %27 = load ptr, ptr %5, align 8
  %28 = load ptr, ptr %6, align 8
  %29 = getelementptr inbounds nuw %struct.SDL_IOStream, ptr %28, i32 0, i32 1
  store ptr %27, ptr %29, align 8
  br label %30

30:                                               ; preds = %23, %19
  %31 = load ptr, ptr %6, align 8
  store ptr %31, ptr %3, align 8
  call void @llvm.lifetime.end.p0(i64 8, ptr %6) #11
  br label %32

32:                                               ; preds = %30, %17, %9
  %33 = load ptr, ptr %3, align 8
  ret ptr %33
}

; Function Attrs: nounwind uwtable
define hidden ptr @SDL_IOFromMem_REAL(ptr noundef %0, i64 noundef %1) #0 {
  %3 = alloca ptr, align 8
  %4 = alloca ptr, align 8
  %5 = alloca i64, align 8
  %6 = alloca ptr, align 8
  %7 = alloca i32, align 4
  %8 = alloca %struct.SDL_IOStreamInterface, align 8
  %9 = alloca ptr, align 8
  %10 = alloca i32, align 4
  store ptr %0, ptr %4, align 8
  store i64 %1, ptr %5, align 8
  %11 = load ptr, ptr %4, align 8
  %12 = icmp ne ptr %11, null
  br i1 %12, label %15, label %13

13:                                               ; preds = %2
  %14 = call zeroext i1 (ptr, ...) @SDL_SetError_REAL(ptr noundef @.str.2, ptr noundef @.str.7)
  store ptr null, ptr %3, align 8
  br label %73

15:                                               ; preds = %2
  %16 = load i64, ptr %5, align 8
  %17 = icmp ne i64 %16, 0
  br i1 %17, label %20, label %18

18:                                               ; preds = %15
  %19 = call zeroext i1 (ptr, ...) @SDL_SetError_REAL(ptr noundef @.str.2, ptr noundef @.str.8)
  store ptr null, ptr %3, align 8
  br label %73

20:                                               ; preds = %15
  br label %21

21:                                               ; preds = %20
  call void @llvm.lifetime.start.p0(i64 8, ptr %6) #11
  %22 = call noalias ptr @SDL_calloc_REAL(i64 noundef 1, i64 noundef 24) #12
  store ptr %22, ptr %6, align 8
  %23 = load ptr, ptr %6, align 8
  %24 = icmp ne ptr %23, null
  br i1 %24, label %26, label %25

25:                                               ; preds = %21
  store ptr null, ptr %3, align 8
  store i32 1, ptr %7, align 4
  br label %72

26:                                               ; preds = %21
  call void @llvm.lifetime.start.p0(i64 56, ptr %8) #11
  br label %27

27:                                               ; preds = %26
  call void @llvm.memset.p0.i64(ptr align 8 %8, i8 0, i64 56, i1 false)
  %28 = getelementptr inbounds nuw %struct.SDL_IOStreamInterface, ptr %8, i32 0, i32 0
  store i32 56, ptr %28, align 8
  br label %29

29:                                               ; preds = %27
  br label %30

30:                                               ; preds = %29
  %31 = getelementptr inbounds nuw %struct.SDL_IOStreamInterface, ptr %8, i32 0, i32 1
  store ptr @mem_size, ptr %31, align 8
  %32 = getelementptr inbounds nuw %struct.SDL_IOStreamInterface, ptr %8, i32 0, i32 2
  store ptr @mem_seek, ptr %32, align 8
  %33 = getelementptr inbounds nuw %struct.SDL_IOStreamInterface, ptr %8, i32 0, i32 3
  store ptr @mem_read, ptr %33, align 8
  %34 = getelementptr inbounds nuw %struct.SDL_IOStreamInterface, ptr %8, i32 0, i32 4
  store ptr @mem_write, ptr %34, align 8
  %35 = getelementptr inbounds nuw %struct.SDL_IOStreamInterface, ptr %8, i32 0, i32 6
  store ptr @mem_close, ptr %35, align 8
  %36 = load ptr, ptr %4, align 8
  %37 = load ptr, ptr %6, align 8
  %38 = getelementptr inbounds nuw %struct.IOStreamMemData, ptr %37, i32 0, i32 0
  store ptr %36, ptr %38, align 8
  %39 = load ptr, ptr %6, align 8
  %40 = getelementptr inbounds nuw %struct.IOStreamMemData, ptr %39, i32 0, i32 0
  %41 = load ptr, ptr %40, align 8
  %42 = load ptr, ptr %6, align 8
  %43 = getelementptr inbounds nuw %struct.IOStreamMemData, ptr %42, i32 0, i32 1
  store ptr %41, ptr %43, align 8
  %44 = load ptr, ptr %6, align 8
  %45 = getelementptr inbounds nuw %struct.IOStreamMemData, ptr %44, i32 0, i32 0
  %46 = load ptr, ptr %45, align 8
  %47 = load i64, ptr %5, align 8
  %48 = getelementptr inbounds nuw i8, ptr %46, i64 %47
  %49 = load ptr, ptr %6, align 8
  %50 = getelementptr inbounds nuw %struct.IOStreamMemData, ptr %49, i32 0, i32 2
  store ptr %48, ptr %50, align 8
  call void @llvm.lifetime.start.p0(i64 8, ptr %9) #11
  %51 = load ptr, ptr %6, align 8
  %52 = call ptr @SDL_OpenIO_REAL(ptr noundef %8, ptr noundef %51)
  store ptr %52, ptr %9, align 8
  %53 = load ptr, ptr %9, align 8
  %54 = icmp ne ptr %53, null
  br i1 %54, label %57, label %55

55:                                               ; preds = %30
  %56 = load ptr, ptr %6, align 8
  call void @SDL_free_REAL(ptr noundef %56)
  br label %70

57:                                               ; preds = %30
  call void @llvm.lifetime.start.p0(i64 4, ptr %10) #11
  %58 = load ptr, ptr %9, align 8
  %59 = call i32 @SDL_GetIOProperties_REAL(ptr noundef %58)
  store i32 %59, ptr %10, align 4
  %60 = load i32, ptr %10, align 4
  %61 = icmp ne i32 %60, 0
  br i1 %61, label %62, label %69

62:                                               ; preds = %57
  %63 = load i32, ptr %10, align 4
  %64 = load ptr, ptr %4, align 8
  %65 = call zeroext i1 @SDL_SetPointerProperty_REAL(i32 noundef %63, ptr noundef @.str.9, ptr noundef %64)
  %66 = load i32, ptr %10, align 4
  %67 = load i64, ptr %5, align 8
  %68 = call zeroext i1 @SDL_SetNumberProperty_REAL(i32 noundef %66, ptr noundef @.str.10, i64 noundef %67)
  br label %69

69:                                               ; preds = %62, %57
  call void @llvm.lifetime.end.p0(i64 4, ptr %10) #11
  br label %70

70:                                               ; preds = %69, %55
  %71 = load ptr, ptr %9, align 8
  store ptr %71, ptr %3, align 8
  store i32 1, ptr %7, align 4
  call void @llvm.lifetime.end.p0(i64 8, ptr %9) #11
  call void @llvm.lifetime.end.p0(i64 56, ptr %8) #11
  br label %72

72:                                               ; preds = %70, %25
  call void @llvm.lifetime.end.p0(i64 8, ptr %6) #11
  br label %73

73:                                               ; preds = %72, %18, %13
  %74 = load ptr, ptr %3, align 8
  ret ptr %74
}