; Function Attrs: nounwind uwtable
define hidden noalias noundef ptr @SDL_IOFromMem_REAL(ptr noundef %0, i64 noundef %1) local_unnamed_addr #0 {
  %.not = icmp eq ptr %0, null
  br i1 %.not, label %3, label %5

3:                                                ; preds = %2
  %4 = tail call zeroext i1 (ptr, ...) @SDL_SetError_REAL(ptr noundef nonnull @.str.2, ptr noundef nonnull @.str.7) #18
  br label %24

5:                                                ; preds = %2
  %.not25 = icmp eq i64 %1, 0
  br i1 %.not25, label %6, label %8

6:                                                ; preds = %5
  %7 = tail call zeroext i1 (ptr, ...) @SDL_SetError_REAL(ptr noundef nonnull @.str.2, ptr noundef nonnull @.str.8) #18
  br label %24

8:                                                ; preds = %5
  %9 = tail call noalias dereferenceable_or_null(24) ptr @SDL_calloc_REAL(i64 noundef 1, i64 noundef 24) #17
  %.not26 = icmp eq ptr %9, null
  br i1 %.not26, label %24, label %10

10:                                               ; preds = %8
  store ptr %0, ptr %9, align 8
  %11 = getelementptr inbounds nuw i8, ptr %9, i64 8
  store ptr %0, ptr %11, align 8
  %12 = getelementptr inbounds nuw i8, ptr %0, i64 %1
  %13 = getelementptr inbounds nuw i8, ptr %9, i64 16
  store ptr %12, ptr %13, align 8
  %14 = tail call noalias dereferenceable_or_null(72) ptr @SDL_calloc_REAL(i64 noundef 1, i64 noundef 72) #17
  %.not11.i = icmp eq ptr %14, null
  br i1 %.not11.i, label %15, label %16

15:                                               ; preds = %10
  tail call void @SDL_free_REAL(ptr noundef nonnull %9) #18
  br label %24

16:                                               ; preds = %10
  store i32 56, ptr %14, align 8
  %.sroa.6.0..sroa_idx = getelementptr inbounds nuw i8, ptr %14, i64 4
  store i32 0, ptr %.sroa.6.0..sroa_idx, align 4
  %.sroa.630.0..sroa_idx = getelementptr inbounds nuw i8, ptr %14, i64 8
  store ptr @mem_size, ptr %.sroa.630.0..sroa_idx, align 8
  %.sroa.7.0..sroa_idx = getelementptr inbounds nuw i8, ptr %14, i64 16
  store ptr @mem_seek, ptr %.sroa.7.0..sroa_idx, align 8
  %.sroa.8.0..sroa_idx = getelementptr inbounds nuw i8, ptr %14, i64 24
  store ptr @mem_read, ptr %.sroa.8.0..sroa_idx, align 8
  %.sroa.9.0..sroa_idx = getelementptr inbounds nuw i8, ptr %14, i64 32
  store ptr @mem_write, ptr %.sroa.9.0..sroa_idx, align 8
  %.sroa.10.0..sroa_idx = getelementptr inbounds nuw i8, ptr %14, i64 40
  store ptr null, ptr %.sroa.10.0..sroa_idx, align 8
  %.sroa.1031.0..sroa_idx = getelementptr inbounds nuw i8, ptr %14, i64 48
  store ptr @mem_close, ptr %.sroa.1031.0..sroa_idx, align 8
  %17 = getelementptr inbounds nuw i8, ptr %14, i64 56
  store ptr %9, ptr %17, align 8
  %18 = getelementptr inbounds nuw i8, ptr %14, i64 68
  %19 = load i32, ptr %18, align 4
  %20 = icmp eq i32 %19, 0
  br i1 %20, label %SDL_GetIOProperties_REAL.exit, label %SDL_GetIOProperties_REAL.exit.thread

SDL_GetIOProperties_REAL.exit:                    ; preds = %16
  %21 = tail call i32 @SDL_CreateProperties_REAL() #18
  store i32 %21, ptr %18, align 4
  %.not28 = icmp eq i32 %21, 0
  br i1 %.not28, label %24, label %SDL_GetIOProperties_REAL.exit.thread

SDL_GetIOProperties_REAL.exit.thread:             ; preds = %16, %SDL_GetIOProperties_REAL.exit
  %.0.i2939 = phi i32 [ %21, %SDL_GetIOProperties_REAL.exit ], [ %19, %16 ]
  %22 = tail call zeroext i1 @SDL_SetPointerProperty_REAL(i32 noundef %.0.i2939, ptr noundef nonnull @.str.9, ptr noundef nonnull %0) #18
  %23 = tail call zeroext i1 @SDL_SetNumberProperty_REAL(i32 noundef %.0.i2939, ptr noundef nonnull @.str.10, i64 noundef %1) #18
  br label %24

24:                                               ; preds = %15, %SDL_GetIOProperties_REAL.exit.thread, %SDL_GetIOProperties_REAL.exit, %8, %6, %3
  %.0 = phi ptr [ null, %6 ], [ null, %3 ], [ null, %8 ], [ %14, %SDL_GetIOProperties_REAL.exit ], [ %14, %SDL_GetIOProperties_REAL.exit.thread ], [ null, %15 ]
  ret ptr %.0
}